; Function Attrs: nounwind uwtable
define zeroext i8 @l_Array_qsort_sort___at_Lean_Compiler_LCNF_Probe_sortedBySize___spec__2___lambda__1(ptr noundef readonly captures(none) %0, ptr noundef readonly captures(none) %1) local_unnamed_addr #0 {
  %3 = getelementptr inbounds nuw i8, ptr %0, i64 8
  %4 = load ptr, ptr %3, align 8, !tbaa !10
  %5 = getelementptr inbounds nuw i8, ptr %0, i64 16
  %6 = load ptr, ptr %5, align 8, !tbaa !10
  %7 = getelementptr inbounds nuw i8, ptr %1, i64 8
  %8 = load ptr, ptr %7, align 8, !tbaa !10
  %9 = getelementptr inbounds nuw i8, ptr %1, i64 16
  %10 = load ptr, ptr %9, align 8, !tbaa !10
  %11 = ptrtoint ptr %4 to i64
  %12 = and i64 %11, 1
  %.not = icmp eq i64 %12, 0
  br i1 %.not, label %lean_nat_eq.exit.thread18, label %13, !prof !17

13:                                               ; preds = %2
  %14 = ptrtoint ptr %8 to i64
  %15 = and i64 %14, 1
  %.not20 = icmp eq i64 %15, 0
  br i1 %.not20, label %lean_nat_eq.exit, label %lean_nat_eq.exit.thread, !prof !17

lean_nat_eq.exit:                                 ; preds = %13
  %16 = tail call zeroext i1 @lean_nat_big_eq(ptr noundef %4, ptr noundef %8) #4
  br i1 %16, label %21, label %.critedge.i15

lean_nat_eq.exit.thread18:                        ; preds = %2
  %17 = tail call zeroext i1 @lean_nat_big_eq(ptr noundef %4, ptr noundef %8) #4
  br i1 %17, label %21, label %.critedge.i15

lean_nat_eq.exit.thread:                          ; preds = %13
  %.not21 = icmp eq ptr %4, %8
  br i1 %.not21, label %21, label %.thread

.thread:                                          ; preds = %lean_nat_eq.exit.thread
  %18 = icmp ult ptr %4, %8
  br label %lean_nat_lt.exit

.critedge.i15:                                    ; preds = %lean_nat_eq.exit, %lean_nat_eq.exit.thread18
  %19 = tail call zeroext i1 @lean_nat_big_lt(ptr noundef %4, ptr noundef %8) #4
  br label %lean_nat_lt.exit

lean_nat_lt.exit:                                 ; preds = %.thread, %.critedge.i15
  %.0.i16 = phi i1 [ %18, %.thread ], [ %19, %.critedge.i15 ]
  %20 = zext i1 %.0.i16 to i8
  br label %27

21:                                               ; preds = %lean_nat_eq.exit.thread18, %lean_nat_eq.exit.thread, %lean_nat_eq.exit
  %22 = getelementptr inbounds nuw i8, ptr %6, i64 8
  %23 = load ptr, ptr %22, align 8, !tbaa !10
  %24 = getelementptr inbounds nuw i8, ptr %10, i64 8
  %25 = load ptr, ptr %24, align 8, !tbaa !10
  %26 = tail call zeroext i8 @l_Lean_Name_lt(ptr noundef %23, ptr noundef %25) #4
  br label %27

27:                                               ; preds = %21, %lean_nat_lt.exit
  %.0 = phi i8 [ %20, %lean_nat_lt.exit ], [ %26, %21 ]
  ret i8 %.0
}